target datalayout = "e-m:e-p270:32:32-p271:32:32-p272:64:64-i64:64-i128:128-f80:128-n8:16:32:64-S128"
target triple = "x86_64-pc-linux-gnu"

%struct.err_state_st = type { [16 x %struct.err_error_st], i32, i32, ptr }
%struct.err_error_st = type { ptr, ptr, i32, i16, i8 }

; Function Attrs: nounwind uwtable
define internal void @err_clear_data(ptr noundef %0) #0 {
  %2 = alloca ptr, align 8
  store ptr %0, ptr %2, align 8, !tbaa !20
  %3 = load ptr, ptr %2, align 8, !tbaa !20
  %4 = getelementptr inbounds nuw %struct.err_error_st, ptr %3, i32 0, i32 4
  %5 = load i8, ptr %4, align 2, !tbaa !30
  %6 = zext i8 %5 to i32
  %7 = and i32 %6, 16
  %8 = icmp ne i32 %7, 0
  br i1 %8, label %9, label %13

9:                                                ; preds = %1
  %10 = load ptr, ptr %2, align 8, !tbaa !20
  %11 = getelementptr inbounds nuw %struct.err_error_st, ptr %10, i32 0, i32 1
  %12 = load ptr, ptr %11, align 8, !tbaa !29
  call void @free(ptr noundef %12) #12
  br label %13

13:                                               ; preds = %9, %1
  %14 = load ptr, ptr %2, align 8, !tbaa !20
  %15 = getelementptr inbounds nuw %struct.err_error_st, ptr %14, i32 0, i32 1
  store ptr null, ptr %15, align 8, !tbaa !29
  %16 = load ptr, ptr %2, align 8, !tbaa !20
  %17 = getelementptr inbounds nuw %struct.err_error_st, ptr %16, i32 0, i32 4
  %18 = load i8, ptr %17, align 2, !tbaa !30
  %19 = zext i8 %18 to i32
  %20 = and i32 %19, -17
  %21 = trunc i32 %20 to i8
  store i8 %21, ptr %17, align 2, !tbaa !30
  ret void
}

; Function Attrs: nounwind uwtable
define internal void @err_clear(ptr noundef %0) #0 {
  %2 = alloca ptr, align 8
  store ptr %0, ptr %2, align 8, !tbaa !20
  %3 = load ptr, ptr %2, align 8, !tbaa !20
  call void @err_clear_data(ptr noundef %3)
  %4 = load ptr, ptr %2, align 8, !tbaa !20
  call void @llvm.memset.p0.i64(ptr align 8 %4, i8 0, i64 24, i1 false)
  ret void
}

; Function Attrs: nounwind uwtable
define internal ptr @err_get_state() #0 {
  %1 = alloca ptr, align 8
  %2 = alloca ptr, align 8
  %3 = alloca i32, align 4
  call void @llvm.lifetime.start.p0(i64 8, ptr %2) #12
  %4 = call ptr @CRYPTO_get_thread_local(i32 noundef 0)
  store ptr %4, ptr %2, align 8, !tbaa !15
  %5 = load ptr, ptr %2, align 8, !tbaa !15
  %6 = icmp eq ptr %5, null
  br i1 %6, label %7, label %19

7:                                                ; preds = %0
  %8 = call noalias ptr @malloc(i64 noundef 400) #13
  store ptr %8, ptr %2, align 8, !tbaa !15
  %9 = load ptr, ptr %2, align 8, !tbaa !15
  %10 = icmp eq ptr %9, null
  br i1 %10, label %11, label %12

11:                                               ; preds = %7
  store ptr null, ptr %1, align 8
  store i32 1, ptr %3, align 4
  br label %21

12:                                               ; preds = %7
  %13 = load ptr, ptr %2, align 8, !tbaa !15
  call void @llvm.memset.p0.i64(ptr align 8 %13, i8 0, i64 400, i1 false)
  %14 = load ptr, ptr %2, align 8, !tbaa !15
  %15 = call i32 @CRYPTO_set_thread_local(i32 noundef 0, ptr noundef %14, ptr noundef @err_state_free)
  %16 = icmp ne i32 %15, 0
  br i1 %16, label %18, label %17

17:                                               ; preds = %12
  store ptr null, ptr %1, align 8
  store i32 1, ptr %3, align 4
  br label %21

18:                                               ; preds = %12
  br label %19

19:                                               ; preds = %18, %0
  %20 = load ptr, ptr %2, align 8, !tbaa !15
  store ptr %20, ptr %1, align 8
  store i32 1, ptr %3, align 4
  br label %21

21:                                               ; preds = %19, %17, %11
  call void @llvm.lifetime.end.p0(i64 8, ptr %2) #12
  %22 = load ptr, ptr %1, align 8
  ret ptr %22
}

; Function Attrs: nounwind uwtable
define hidden void @ERR_clear_error() #0 {
  %1 = alloca ptr, align 8
  %2 = alloca i32, align 4
  %3 = alloca i32, align 4
  call void @llvm.lifetime.start.p0(i64 8, ptr %1) #12
  %4 = call ptr @err_get_state()
  store ptr %4, ptr %1, align 8, !tbaa !15
  call void @llvm.lifetime.start.p0(i64 4, ptr %2) #12
  %5 = load ptr, ptr %1, align 8, !tbaa !15
  %6 = icmp eq ptr %5, null
  br i1 %6, label %7, label %8

7:                                                ; preds = %0
  store i32 1, ptr %3, align 4
  br label %31

8:                                                ; preds = %0
  store i32 0, ptr %2, align 4, !tbaa !6
  br label %9

9:                                                ; preds = %18, %8
  %10 = load i32, ptr %2, align 4, !tbaa !6
  %11 = icmp ult i32 %10, 16
  br i1 %11, label %12, label %21

12:                                               ; preds = %9
  %13 = load ptr, ptr %1, align 8, !tbaa !15
  %14 = getelementptr inbounds nuw %struct.err_state_st, ptr %13, i32 0, i32 0
  %15 = load i32, ptr %2, align 4, !tbaa !6
  %16 = zext i32 %15 to i64
  %17 = getelementptr inbounds nuw [16 x %struct.err_error_st], ptr %14, i64 0, i64 %16
  call void @err_clear(ptr noundef %17)
  br label %18

18:                                               ; preds = %12
  %19 = load i32, ptr %2, align 4, !tbaa !6
  %20 = add i32 %19, 1
  store i32 %20, ptr %2, align 4, !tbaa !6
  br label %9, !llvm.loop !32

21:                                               ; preds = %9
  %22 = load ptr, ptr %1, align 8, !tbaa !15
  %23 = getelementptr inbounds nuw %struct.err_state_st, ptr %22, i32 0, i32 3
  %24 = load ptr, ptr %23, align 8, !tbaa !31
  call void @free(ptr noundef %24) #12
  %25 = load ptr, ptr %1, align 8, !tbaa !15
  %26 = getelementptr inbounds nuw %struct.err_state_st, ptr %25, i32 0, i32 3
  store ptr null, ptr %26, align 8, !tbaa !31
  %27 = load ptr, ptr %1, align 8, !tbaa !15
  %28 = getelementptr inbounds nuw %struct.err_state_st, ptr %27, i32 0, i32 2
  store i32 0, ptr %28, align 4, !tbaa !17
  %29 = load ptr, ptr %1, align 8, !tbaa !15
  %30 = getelementptr inbounds nuw %struct.err_state_st, ptr %29, i32 0, i32 1
  store i32 0, ptr %30, align 8, !tbaa !19
  store i32 0, ptr %3, align 4
  br label %31

31:                                               ; preds = %21, %7
  call void @llvm.lifetime.end.p0(i64 4, ptr %2) #12
  call void @llvm.lifetime.end.p0(i64 8, ptr %1) #12
  %32 = load i32, ptr %3, align 4
  switch i32 %32, label %34 [
    i32 0, label %33
    i32 1, label %33
  ]

33:                                               ; preds = %31, %31
  ret void

34:                                               ; preds = %31
  unreachable
}