; Function Attrs: nounwind uwtable
define hidden void @ERR_clear_error() local_unnamed_addr #0 {
  %1 = tail call ptr @CRYPTO_get_thread_local(i32 noundef 0) #17
  %2 = icmp eq ptr %1, null
  br i1 %2, label %3, label %err_get_state.exit

3:                                                ; preds = %0
  %calloc.i = tail call dereferenceable_or_null(400) ptr @calloc(i64 1, i64 400)
  %4 = icmp eq ptr %calloc.i, null
  br i1 %4, label %err_get_state.exit.thread, label %5

5:                                                ; preds = %3
  %6 = tail call i32 @CRYPTO_set_thread_local(i32 noundef 0, ptr noundef nonnull %calloc.i, ptr noundef nonnull @err_state_free) #17
  %.not.i = icmp eq i32 %6, 0
  br i1 %.not.i, label %err_get_state.exit.thread, label %err_get_state.exit

err_get_state.exit:                               ; preds = %5, %0
  %.06.i = phi ptr [ %1, %0 ], [ %calloc.i, %5 ]
  br label %7

7:                                                ; preds = %err_get_state.exit, %err_clear.exit
  %indvars.iv = phi i64 [ 0, %err_get_state.exit ], [ %indvars.iv.next, %err_clear.exit ]
  %8 = getelementptr inbounds nuw [16 x %struct.err_error_st], ptr %.06.i, i64 0, i64 %indvars.iv
  %9 = getelementptr inbounds nuw i8, ptr %8, i64 22
  %10 = load i8, ptr %9, align 2, !tbaa !17
  %11 = and i8 %10, 16
  %.not.i.i = icmp eq i8 %11, 0
  br i1 %.not.i.i, label %err_clear.exit, label %12

12:                                               ; preds = %7
  %13 = getelementptr inbounds nuw i8, ptr %8, i64 8
  %14 = load ptr, ptr %13, align 8, !tbaa !18
  tail call void @free(ptr noundef %14) #17
  br label %err_clear.exit

err_clear.exit:                                   ; preds = %7, %12
  tail call void @llvm.memset.p0.i64(ptr noundef nonnull align 8 dereferenceable(24) %8, i8 0, i64 24, i1 false)
  %indvars.iv.next = add nuw nsw i64 %indvars.iv, 1
  %exitcond.not = icmp eq i64 %indvars.iv.next, 16
  br i1 %exitcond.not, label %15, label %7, !llvm.loop !24

15:                                               ; preds = %err_clear.exit
  %16 = getelementptr inbounds nuw i8, ptr %.06.i, i64 392
  %17 = load ptr, ptr %16, align 8, !tbaa !23
  tail call void @free(ptr noundef %17) #17
  %18 = getelementptr inbounds nuw i8, ptr %.06.i, i64 384
  tail call void @llvm.memset.p0.i64(ptr noundef nonnull align 8 dereferenceable(16) %18, i8 0, i64 16, i1 false)
  br label %err_get_state.exit.thread

err_get_state.exit.thread:                        ; preds = %5, %3, %15
  ret void
}